(lp1
(S'it'
p2
S'looks'
p3
tp4
a(S';'
S'url'
p5
tp6
a(S'('
S'or'
p7
tp8
a(S"n't"
S'think'
p9
tp10
a(S"'"
S"''"
p11
tp12
a(S'do'
p13
S'not'
p14
tp15
a(S'the'
S'point'
tp16
a(S'-'
S')'
tp17
a(S'thank'
p18
S'you'
p19
tp20
a(S'in'
S'&'
tp21
a(S'know'
p22
S'if'
p23
tp24
a(S'#'
S'58'
p25
tp26
a(S'that'
p27
S"'s"
p28
tp29
a(S'i'
S'had'
p30
tp31
a(S'to'
p32
S'change'
p33
tp34
a(S'of'
p35
S'&'
tp36
a(S'do'
S'?'
tp37
a(S'was'
S'it'
tp38
a(S'should'
p39
S'i'
tp40
a(S'can'
S'not'
p41
tp42
a(S'this'
S'.'
tp43
a(S'('
S')'
tp44
a(S'a'
S'bit'
p45
tp46
a(S'it'
p47
S'to'
tp48
a(S'for'
p49
S'an'
p50
tp51
a(S'why'
p52
S'you'
p53
tp54
a(S'sure'
p55
S'what'
tp56
a(S'hey'
S'&'
tp57
a(S'some'
p58
S'of'
p59
tp60
a(S'what'
S"'s"
tp61
a(S'are'
p62
S'the'
p63
tp64
a(S'question'
p65
S','
tp66
a(S'a'
S'link'
p67
tp68
a(S'to'
p69
S'you'
p70
tp71
a(S'the'
p72
S'answer'
p73
tp74
a(S'use'
p75
S'a'
tp76
a(S'just'
p77
S'a'
tp78
a(S'is'
p79
S'your'
p80
tp81
a(g67
S'to'
p82
tp83
a(S'have'
p84
S'been'
p85
tp86
a(S'something'
p87
S'like'
p88
tp89
a(S'it'
g77
tp90
a(S'i'
S'will'
p91
tp92
a(S'and'
p93
S'not'
p94
tp95
a(S'44'
S'not'
p96
tp97
a(S'i'
S"'d"
p98
tp99
a(S'that'
p100
S'is'
p101
tp102
a(S'not'
S'just'
p103
tp104
a(S'what'
S'?'
tp105
a(S'with'
p106
S'the'
p107
tp108
a(S'you'
p109
S'know'
p110
tp111
a(S'did'
p112
S'you'
p113
tp114
a(S'to'
p115
S'be'
p116
tp117
a(S'that'
p118
S'I'
tp119
a(S'that'
p120
S'&'
tp121
a(S'the'
S'article'
p122
tp123
a(S'34'
S'?'
tp124
a(S'if'
p125
S'there'
p126
tp127
a(S"'s"
S'wrong'
tp128
a(S'think'
p129
S'you'
tp130
a(S'page'
p131
S'&'
tp132
a(S'of'
S'that'
p133
tp134
a(S'that'
p135
S'?'
tp136
a(S'a'
S'way'
tp137
a(S','
S'can'
p138
tp139
a(S'I'
S"'ve"
p140
tp141
a(S'?'
S'?'
tp142
a(S'what'
p143
S'the'
tp144
a(S"''"
p145
S'?'
tp146
a(S')'
S'`'
tp147
a(S'the'
S'top'
tp148
a(S'an'
S'example'
p149
tp150
a(S'it'
S'that'
p151
tp152
a(S'It'
S"'s"
tp153
a(S'44'
S'thanks'
p154
tp155
a(S'what'
p156
S'i'
tp157
a(S')'
S'and'
tp158
a(S'i'
g129
tp159
a(S'have'
p160
S'the'
p161
tp162
a(S"n't"
p163
S'the'
p164
tp165
a(S'it'
p166
S'be'
p167
tp168
a(S'able'
p169
S'to'
p170
tp171
a(S'version'
p172
S'of'
p173
tp174
a(S'What'
S'kind'
tp175
a(S'it'
p176
S'does'
tp177
a(S';'
S'&'
tp178
a(S'on'
p179
S'that'
p180
tp181
a(S'on'
p182
S'the'
p183
tp184
a(S','
S'or'
p185
tp186
a(S'a'
S'question'
p187
tp188
a(S'of'
p189
S'the'
p190
tp191
a(g80
S'code'
p192
tp193
a(S'please'
p194
S'?'
tp195
a(S'this'
p196
S'question'
p197
tp198
a(S"'s"
S'not'
p199
tp200
a(S'you'
S'using'
p201
tp202
a(S'have'
S'no'
p203
tp204
a(S'34'
S'&'
tp205
a(S'44'
S'could'
tp206
a(S'this'
p207
S'one'
p208
tp209
a(S'the'
S'talk'
tp210
a(S'What'
g62
tp211
a(g187
S'?'
tp212
a(S'supposed'
p213
S'to'
p214
tp215
a(S'code'
S'?'
tp216
a(S'so'
S'&'
tp217
a(S'such'
p218
S'a'
tp219
a(S'this'
S'article'
p220
tp221
a(g190
S'problem'
p222
tp223
a(S'is'
p224
S"n't"
p225
tp226
a(S'for'
p227
S'a'
tp228
a(S'has'
p229
S'been'
p230
tp231
a(S'to'
p232
S'use'
p233
tp234
a(S"'m"
S'not'
p235
tp236
a(S'when'
p237
S'i'
tp238
a(S';'
S'person'
p239
tp240
a(S'how'
p241
g32
tp242
a(S'i'
S'noticed'
p243
tp244
a(S'seem'
p245
S'to'
tp246
a(S'you'
S'just'
p247
tp248
a(S'from'
p249
S'a'
tp250
a(S'your'
p251
S'own'
p252
tp253
a(S':'
S')'
tp254
a(S'let'
p255
S'me'
p256
tp257
a(S','
S'as'
tp258
a(S'page'
p259
S'.'
tp260
a(S')'
S'&'
tp261
a(S'be'
S'the'
p262
tp263
a(S"n't"
S'want'
tp264
a(S'the'
S'question'
p265
tp266
a(S'you'
p267
S'please'
p268
tp269
a(S"n't"
S'be'
p270
tp271
a(S'you'
S'help'
p272
tp273
a(S'be'
p274
g169
tp275
a(S"'s"
S'the'
p276
tp277
a(S'work'
p278
g182
tp279
a(S'to'
S'ask'
p280
tp281
a(S'i'
S"'ve"
p282
tp283
a(S')'
S','
tp284
a(S','
S'please'
p285
tp286
a(S'did'
p287
S"n't"
p288
tp289
a(S'Can'
p290
S'you'
p291
tp292
a(S'the'
S'user'
p293
tp294
a(S'out'
p295
S'of'
p296
tp297
a(S'for'
p298
S'this'
p299
tp300
a(S'i'
S'do'
p301
tp302
a(S'and'
S'i'
tp303
a(S'to'
p304
S'my'
p305
tp306
a(S'it'
S'&'
tp307
a(S'about'
p308
S'the'
p309
tp310
a(S'yes'
S'&'
tp311
a(S'here'
p312
S'?'
tp313
a(S'on'
p314
S'&'
tp315
a(S'are'
p316
S'not'
tp317
a(S'that'
S'.'
tp318
a(S'talking'
p319
S'about'
tp320
a(S"n't"
S'really'
p321
tp322
a(S'to'
p323
S'?'
tp324
a(S'kind'
p325
S'of'
p326
tp327
a(S'-'
S'i'
tp328
a(S'the'
S'code'
p329
tp330
a(S'do'
S'that'
tp331
a(S'a'
S'little'
p332
tp333
a(S'like'
p334
S'to'
p335
tp336
a(S'you'
S'have'
p337
tp338
a(S'possible'
p339
S'to'
p340
tp341
a(S'you'
S'make'
p342
tp343
a(S'44'
S'the'
p344
tp345
a(S'If'
S'you'
tp346
a(S'into'
p347
S'the'
p348
tp349
a(S'have'
p350
S'you'
p351
tp352
a(S'is'
S'that'
tp353
a(g185
S'a'
tp354
a(S';'
S'article'
p355
tp356
a(S'again'
p357
S'.'
tp358
a(g291
S'post'
p359
tp360
a(S'that'
p361
S'this'
tp362
a(S'What'
S'exactly'
p363
tp364
a(S'&'
S'#'
tp365
a(S'any'
p366
S'chance'
p367
tp368
a(S'give'
S'a'
tp369
a(S'would'
S'you'
p370
tp371
a(S'wondering'
p372
S'if'
p373
tp374
a(S'you'
S'like'
tp375
a(S'Is'
S'the'
tp376
a(S'What'
S"'s"
p377
tp378
a(g170
S'help'
p379
tp380
a(S'need'
S'a'
tp381
a(S'to'
p382
S'the'
p383
tp384
a(S'thanks'
p385
S'for'
tp386
a(S'like'
p387
g207
tp388
a(S'looking'
p389
S'for'
p390
tp391
a(S'than'
S'the'
p392
tp393
a(S'you'
S'be'
p394
tp395
a(S'not'
S'the'
p396
tp397
a(S'on'
p398
S'my'
p399
tp400
a(S','
S'why'
tp401
a(S'see'
p402
S'the'
p403
tp404
a(S'That'
p405
S"'s"
p406
tp407
a(S'with'
p408
S'a'
tp409
a(S'this'
S'a'
tp410
a(S'where'
p411
S'you'
tp412
a(S':'
S'-'
tp413
a(S'me'
S'?'
tp414
a(S'do'
S'with'
p415
tp416
a(S'This'
S'is'
p417
tp418
a(S'now'
p419
S'?'
tp420
a(S'using'
S'?'
tp421
a(S'with'
p422
S'you'
p423
tp424
a(S'with'
p425
S'?'
tp426
a(S'could'
S'you'
tp427
a(S'with'
S'it'
tp428
a(S'an'
p429
S'answer'
tp430
a(S'list'
p431
S'of'
p432
tp433
a(S'to'
p434
S'this'
p435
tp436
a(S'Is'
S'it'
p437
tp438
a(S"'m"
S'sorry'
p439
tp440
a(S'Could'
p441
g267
tp442
a(S'I'
S'think'
p443
tp444
a(S'the'
S'image'
p445
tp446
a(S'not'
S'be'
p447
tp448
a(S','
S'so'
p449
tp450
a(g355
S'&'
tp451
a(S'what'
S'are'
p452
tp453
a(S'want'
p454
g232
tp455
a(S'why'
p456
S'did'
tp457
a(S'are'
S"n't"
p458
tp459
a(S'file'
p460
S'?'
tp461
a(S'like'
S'a'
tp462
a(S'#'
S'34'
p463
tp464
a(S'Why'
S'are'
p465
tp466
a(S'ok'
p467
S'&'
tp468
a(S'Would'
S'you'
p469
tp470
a(S','
S'I'
tp471
a(S'about'
S'?'
tp472
a(S'the'
S'output'
p473
tp474
a(S"n't"
S'see'
p475
tp476
a(S','
S'are'
tp477
a(g220
S'.'
tp478
a(S'you'
S'mean'
p479
tp480
a(S'one'
p481
S'?'
tp482
a(S'as'
p483
S'the'
tp484
a(S'do'
S'it'
p485
tp486
a(S'of'
p487
S'a'
tp488
a(S'question'
p489
S'.'
tp490
a(S'on'
p491
S'your'
p492
tp493
a(S'the'
p494
S'title'
p495
tp496
a(S'all'
p497
S'of'
tp498
a(S','
S'but'
p499
tp500
a(S'more'
p501
S'than'
p502
tp503
a(S'it'
S'would'
tp504
a(S'How'
S'do'
tp505
a(S'on'
S'a'
tp506
a(S';'
S'to'
p507
tp508
a(S'which'
p509
S'is'
p510
tp511
a(S'more'
p512
S'information'
p513
tp514
a(S','
S'that'
tp515
a(S'at'
p516
S'&'
tp517
a(S'yet'
p518
S'?'
tp519
a(S'more'
p520
S'specific'
p521
tp522
a(S'not'
p523
S'a'
tp524
a(S'i'
S'just'
p525
tp526
a(S'you'
S'explain'
p527
tp528
a(S'the'
p529
S'file'
p530
tp531
a(S'please'
S'explain'
p532
tp533
a(S'could'
p534
S'be'
p535
tp536
a(S'a'
S'&'
tp537
a(S'provide'
S'a'
tp538
a(S'on'
p539
S'?'
tp540
a(S'44'
S'you'
p541
tp542
a(S'44'
S'but'
p543
tp544
a(S'a'
S'look'
p545
tp546
a(S'you'
S'use'
tp547
a(S'work'
p548
S'?'
tp549
a(S'it'
S'was'
p550
tp551
a(S'What'
p552
S'do'
p553
tp554
a(S"''"
p555
S','
tp556
a(S'can'
p557
S'be'
p558
tp559
a(S'all'
p560
S'the'
p561
tp562
a(S'type'
p563
S'of'
p564
tp565
a(S'('
S'http'
p566
tp567
a(S'thanks'
S'.'
tp568
a(S'is'
p569
S'not'
p570
tp571
a(S'wo'
p572
S"n't"
p573
tp574
a(S'you'
S'are'
p575
tp576
a(S'was'
p577
S"n't"
p578
tp579
a(S','
S'the'
p580
tp581
a(S'then'
p582
S'?'
tp583
a(S'there'
p584
g224
tp585
a(S'it'
S'a'
tp586
a(g222
S'.'
tp587
a(S'why'
p588
S'not'
p589
tp590
a(S'you'
S'need'
p591
tp592
a(S'get'
S'the'
p593
tp594
a(S'something'
p595
S'?'
tp596
a(S'I'
S'do'
tp597
a(S'you'
S'for'
p598
tp599
a(S'for'
p600
S'that'
p601
tp602
a(S'a'
S'good'
p603
tp604
a(S'44'
S'it'
tp605
a(S'44'
S'i'
tp606
a(S'as'
p607
S'you'
tp608
a(S'and'
S'how'
tp609
a(S'like'
p610
g100
tp611
a(S'the'
p612
S'name'
p613
tp614
a(g553
S'you'
p615
tp616
a(S'the'
p617
g131
tp618
a(S'but'
S'i'
tp619
a(S'and'
p620
S'it'
p621
tp622
a(S'know'
S'that'
tp623
a(g390
S'?'
tp624
a(S'you'
p625
S'?'
tp626
a(S'like'
S'you'
tp627
a(g479
S'by'
p628
tp629
a(S','
S'what'
tp630
a(S'tell'
p631
S'me'
p632
tp633
a(S'use'
S'the'
p634
tp635
a(S'why'
p636
S'would'
tp637
a(S'using'
p638
S'the'
p639
tp640
a(S'time'
p641
S'to'
p642
tp643
a(S'but'
p644
S'it'
tp645
a(S'change'
p646
S'the'
tp647
a(S'try'
p648
S'to'
p649
tp650
a(S'i'
S'did'
p651
tp652
a(S'you'
S'try'
p653
tp654
a(S'44'
g509
tp655
a(S'a'
S'few'
p656
tp657
a(S'at'
p658
S'all'
p659
tp660
a(S'or'
S'are'
tp661
a(S'What'
S'is'
tp662
a(g628
S'``'
p663
tp664
a(S'i'
S'was'
p665
tp666
a(S'a'
S'single'
p667
tp668
a(S'the'
S'&'
tp669
a(S'i.e'
p670
S'.'
tp671
a(S'ok'
p672
S'?'
tp673
a(S'is'
p674
S'it'
p675
tp676
a(S'that'
p677
S'i'
tp678
a(S'44'
S'can'
tp679
a(S'homework'
p680
S'?'
tp681
a(S'need'
p682
S'to'
tp683
a(S'way'
p684
S'to'
p685
tp686
a(S'Is'
S'this'
p687
tp688
a(S','
S'you'
p689
tp690
a(S'it'
p691
S'on'
p692
tp693
a(S'and'
S'the'
tp694
a(S'the'
S'one'
p695
tp696
a(S'is'
p697
S'the'
p698
tp699
a(S'as'
p700
S'it'
tp701
a(S'that'
p702
S'the'
p703
tp704
a(S'one'
S'of'
tp705
a(S'but'
S'you'
p706
tp707
a(S'do'
S'this'
p708
tp709
a(S'is'
S'an'
p710
tp711
a(S'what'
p712
S'exactly'
p713
tp714
a(S'that'
p715
S'it'
tp716
a(g543
S'the'
p717
tp718
a(S'them'
p719
S'?'
tp720
a(S'do'
S'the'
p721
tp722
a(S'the'
p723
S'way'
p724
tp725
a(S'should'
p726
g163
tp727
a(S'up'
p728
S'?'
tp729
a(S'why'
p730
S'?'
tp731
a(S'how'
p732
S'many'
p733
tp734
a(S'do'
p735
S"n't"
p736
tp737
a(S'to'
S'make'
p738
tp739
a(S'a'
S'problem'
tp740
a(S'44'
S'why'
tp741
a(S'for'
p742
S'&'
tp743
a(S'and'
p744
S'then'
p745
tp746
a(S'related'
p747
S'to'
p748
tp749
a(S')'
S'or'
p750
tp751
a(S'i'
S'can'
p752
tp753
a(S'Is'
S"n't"
p754
tp755
a(S'this'
p756
S'?'
tp757
a(g685
S'add'
p758
tp759
a(S'lt'
p760
S';'
tp761
a(S'if'
p762
S'it'
tp763
a(S'the'
S'template'
p764
tp765
a(g288
S'have'
p766
tp767
a(S'for'
p768
S'you'
p769
tp770
a(S'of'
S'them'
tp771
a(S'you'
p772
S'trying'
p773
tp774
a(S'know'
S'what'
tp775
a(S"'s"
p776
S'a'
tp777
a(S','
S'then'
p778
tp779
a(S'in'
p780
S'a'
tp781
a(S'to'
S'know'
p782
tp783
a(S'44'
S'as'
tp784
a(S'is'
S'this'
p785
tp786
a(S';'
S'?'
tp787
a(S';'
S'is'
tp788
a(g161
S'time'
tp789
a(g738
S'it'
p790
tp791
a(S'on'
p792
S'what'
p793
tp794
a(S'of'
S'those'
p795
tp796
a(S'as'
p797
S'to'
p798
tp799
a(S'of'
p800
S'what'
tp801
a(g5
S'&'
tp802
a(S'will'
p803
S'be'
tp804
a(S'not'
p805
S'?'
tp806
a(S'Why'
S'would'
p807
tp808
a(S')'
S'?'
tp809
a(S'in'
p810
S'this'
p811
tp812
a(S"n't"
S'understand'
p813
tp814
a(S'Also'
p815
S','
tp816
a(S"n't"
p817
S'it'
p818
tp819
a(S'the'
p820
S'first'
p821
tp822
a(S'or'
p823
g805
tp824
a(S'and'
S'you'
tp825
a(S'we'
p826
S'have'
tp827
a(S'any'
S'other'
p828
tp829
a(S'page'
p830
S'?'
tp831
a(S'me'
p832
S'.'
tp833
a(S'so'
p834
S'that'
tp835
a(S'it'
p836
S'in'
p837
tp838
a(S'why'
p839
S'are'
tp840
a(S'here'
p841
S'.'
tp842
a(S'would'
p843
g334
tp844
a(S'you'
S'see'
tp845
a(S'you'
p846
S'&'
tp847
a(g335
S'do'
p848
tp849
a(S'44'
p850
g93
tp851
a(S'it'
p852
S'for'
tp853
a(S'is'
p854
S'no'
p855
tp856
a(S'understand'
S'the'
tp857
a(S'be'
p858
g520
tp859
a(S"''"
p860
S'.'
tp861
a(S'a'
S'lot'
p862
tp863
a(S"''"
p864
S'&'
tp865
a(S'you'
S'give'
tp866
a(S"n't"
S'work'
tp867
a(S'they'
p868
S'are'
p869
tp870
a(g9
g612
tp871
a(S'what'
p872
g674
tp873
a(S'in'
p874
S'the'
p875
tp876
a(S'know'
p877
g72
tp878
a(S'the'
S'``'
p879
tp880
a(S'you'
S'not'
p881
tp882
a(S'that'
p883
S'you'
p884
tp885
a(S'as'
S'i'
tp886
a(S'add'
p887
S'the'
p888
tp889
a(S'Did'
p890
S'you'
tp891
a(S'am'
S'not'
p892
tp893
a(S'we'
p894
S'can'
p895
tp896
a(S'i'
S'am'
p897
tp898
a(S'what'
S'do'
tp899
a(S'think'
p900
S'i'
tp901
a(S'What'
S'have'
tp902
a(S'post'
p903
S'the'
p904
tp905
a(S'I'
S'am'
p906
tp907
a(S'44'
S'&'
tp908
a(S'and'
p909
S'&'
tp910
a(S'you'
p911
S"'re"
p912
tp913
a(S'willing'
p914
S'to'
p915
tp916
a(g541
S'can'
p917
tp918
a(S'have'
S'any'
p919
tp920
a(S';'
g909
tp921
a(S'it'
p922
S'seems'
p923
tp924
a(S'a'
S'new'
p925
tp926
a(S'i'
S'see'
p927
tp928
a(S'44'
S'then'
tp929
a(S'of'
p930
S'my'
p931
tp932
a(S'talk'
p933
g830
tp934
a(S'in'
p935
S'your'
p936
tp937
a(g485
S'.'
tp938
a(S'44'
S'is'
tp939
a(S"n't"
S'know'
tp940
a(S'how'
p941
S'you'
p942
tp943
a(S'problem'
S'?'
tp944
a(S'part'
p945
S'of'
p946
tp947
a(S'at'
p948
S'least'
p949
tp950
a(S']'
S'('
tp951
a(S'why'
S'is'
tp952
a(S'to'
p953
S'see'
p954
tp955
a(S'you'
S'think'
p956
tp957
a(S'you'
p958
S'do'
tp959
a(S'it'
p960
S'?'
tp961
a(S'Have'
p962
S'you'
p963
tp964
a(S'I'
S'ca'
tp965
a(S'this'
p966
S'&'
tp967
a(S'you'
S'were'
p968
tp969
a(S'so'
p970
S'i'
tp971
a(S'seems'
p972
S'to'
p973
tp974
a(S'does'
p975
S'not'
p976
tp977
a(S'correct'
p978
S'?'
tp979
a(S','
S'right'
p980
tp981
a(S'to'
p982
g832
tp983
a(S'there'
p984
S'a'
tp985
a(S'would'
p986
S'be'
p987
tp988
a(g373
g109
tp989
a(S'will'
p990
S'you'
p991
tp992
a(S','
S'is'
tp993
a(S','
S'how'
tp994
a(S'i'
S'have'
p995
tp996
a(S'i'
S'know'
p997
tp998
a(S'is'
S'&'
tp999
a(S'can'
p1000
S'you'
p1001
tp1002
a(S','
S'do'
tp1003
a(S'do'
p1004
S'i'
tp1005
a(S'was'
p1006
S'the'
tp1007
a(S'can'
S'i'
tp1008
a(S'or'
p1009
S'do'
tp1010
a(g766
S'a'
tp1011
a(S'to'
S'work'
p1012
tp1013
a(S','
S'which'
p1014
tp1015
a(S'going'
p1016
S'to'
tp1017
a(S'you'
S'say'
p1018
tp1019
a(S'that'
p1020
S'was'
p1021
tp1022
a(S'44'
S'would'
p1023
tp1024
a(S':'
S'I'
tp1025
a(g70
S'.'
tp1026
a(S'you'
S'add'
p1027
tp1028
a(g884
g843
tp1029
a(S'Is'
g984
tp1030
a(S'you'
S"'d"
tp1031
a(S'your'
p1032
S'question'
tp1033
a(S'a'
S'better'
p1034
tp1035
a(S'maybe'
p1036
S'you'
p1037
tp1038
a(S'Why'
S'not'
p1039
tp1040
a(S'ca'
p1041
S"n't"
tp1042
a(S'think'
S'that'
p1043
tp1044
a(S'was'
S'a'
tp1045
a(S'44'
S'if'
tp1046
a(S'number'
S'of'
p1047
tp1048
a(S'44'
S'that'
p1049
tp1050
a(S'interested'
p1051
S'in'
p1052
tp1053
a(g875
S'same'
p1054
tp1055
a(S'to'
p1056
S'get'
p1057
tp1058
a(S'as'
p1059
S'an'
p1060
tp1061
a(S'on'
S'this'
tp1062
a(S'answer'
S'?'
tp1063
a(S'you'
S'clarify'
p1064
tp1065
a(S'\\'
S'&'
tp1066
a(S'me'
p1067
S'&'
tp1068
a(S'if'
S'i'
tp1069
a(S'I'
S"'m"
p1070
tp1071
a(S'44'
g194
tp1072
a(S'an'
p1073
S'article'
tp1074
a(S'you'
S'tried'
p1075
tp1076
a(S'this'
p1077
S'is'
p1078
tp1079
a(S'i'
S'would'
p1080
tp1081
a(S'there'
S'any'
p1082
tp1083
a(S'you'
p1084
S'did'
p1085
tp1086
a(S'you'
S'looking'
tp1087
a(S'for'
p1088
g820
tp1089
a(S'you'
p1090
S'really'
p1091
tp1092
a(S'if'
p1093
S'the'
p1094
tp1095
a(S'from'
p1096
S'the'
p1097
tp1098
a(S'34'
S'.'
tp1099
a(S'take'
p1100
S'a'
tp1101
a(g122
g314
tp1102
a(S'over'
p1103
S'the'
tp1104
a(S'with'
p1105
S'this'
tp1106
a(g337
S'to'
p1107
tp1108
a(S'so'
S'far'
p1109
tp1110
a(S'you'
S'tell'
tp1111
a(S'have'
p1112
S"n't"
p1113
tp1114
a(S'be'
S'a'
tp1115
a(S'answer'
p1116
S'.'
tp1117
a(S'does'
p1118
S"n't"
tp1119
a(S'agree'
p1120
S'with'
tp1121
a(g566
S':'
tp1122
a(S'you'
S'mind'
p1123
tp1124
a(S'but'
S'I'
tp1125
a(S'up'
S'with'
p1126
tp1127
a(S'I'
S'can'
p1128
tp1129
a(S'and'
p1130
S'what'
tp1131
a(S'do'
S'I'
tp1132
a(S'#'
g850
tp1133
a(g773
S'to'
p1134
tp1135
a(S'that'
p1136
S'they'
p1137
tp1138
a(g439
S'&'
tp1139
a(S'to'
p1140
S'a'
tp1141
a(S'should'
p1142
S'be'
p1143
tp1144
a(S'that'
S'a'
tp1145
a(S'you'
S'ca'
tp1146
a(S'44'
S'do'
tp1147
a(S'gt'
p1148
S';'
tp1149
a(S'you'
p1150
S'could'
p1151
tp1152
a(S"''"
p1153
S"'"
tp1154
a(S'you'
S'provide'
p1155
tp1156
a(S'in'
p1157
S'my'
p1158
tp1159
a(S'instead'
p1160
S'of'
p1161
tp1162
a(S'at'
p1163
S'the'
p1164
tp1165
a(S'there'
p1166
g776
tp1167
a(S'problem'
p1168
S'with'
p1169
tp1170
a(S'it'
p1171
S'should'
p1172
tp1173
a(S'you'
S'to'
p1174
tp1175
a(S'a'
S'list'
tp1176
a(g956
S'it'
p1177
tp1178
a(S'have'
S'an'
p1179
tp1180
a(S'the'
S'second'
p1181
tp1182
a(S'&'
g760
tp1183
a(S';'
S'.'
tp1184
a(S'to'
S'say'
p1185
tp1186
a(S'what'
p1187
S'does'
p1188
tp1189
a(S'as'
p1190
S'well'
p1191
tp1192
a(S'i'
S"'m"
p1193
tp1194
a(S'it'
p1195
S"'s"
p1196
tp1197
a(S'to'
S'have'
p1198
tp1199
a(S'of'
p1200
S'it'
tp1201
a(g736
S'you'
p1202
tp1203
a(S'hi'
p1204
S'&'
tp1205
a(S'is'
p1206
S'there'
p1207
tp1208
a(S"'"
S'?'
tp1209
a(S'too'
p1210
S'?'
tp1211
a(S'me'
p1212
S'a'
tp1213
a(g59
S'your'
p1214
tp1215
a(g96
S'sure'
p1216
tp1217
a(S'the'
p1218
S'error'
p1219
tp1220
a(S','
g620
tp1221
a(g782
g241
tp1222
a(S'the'
p1223
S'edit'
p1224
tp1225
a(S'&'
g1148
tp1226
a(S'think'
S'?'
tp1227
a(g1202
g454
tp1228
a(S'i'
S"'ll"
p1229
tp1230
a(S'question'
p1231
S'is'
p1232
tp1233
a(S'to'
S'find'
tp1234
a(S'with'
p1235
S'your'
p1236
tp1237
a(S'Does'
S'it'
p1238
tp1239
a(g98
S'like'
tp1240
a(S'to'
p1241
S'your'
p1242
tp1243
a(S'the'
S'new'
p1244
tp1245
a(S'How'
S'are'
tp1246
a(S'44'
S'what'
p1247
tp1248
a(g465
g772
tp1249
a(S'there'
p1250
S'are'
p1251
tp1252
a(g532
S'what'
tp1253
a(S'44'
S'so'
p1254
tp1255
a(S'Are'
S'you'
p1256
tp1257
a(g1191
S'?'
tp1258
a(S'as'
p1259
S'a'
tp1260
a(S'Is'
S'that'
p1261
tp1262
a(g980
S'?'
tp1263
a(S'when'
p1264
S'you'
p1265
tp1266
a(S'referring'
p1267
g323
tp1268
a(S"'ve"
p1269
S'been'
p1270
tp1271
a(S'what'
S'I'
tp1272
a(g1023
g817
tp1273
a(S'noticed'
S'that'
tp1274
a(g1037
S'should'
p1275
tp1276
a(S'the'
S'list'
p1277
tp1278
a(S'saying'
p1279
S'that'
p1280
tp1281
a(g862
S'of'
p1282
tp1283
a(S'I'
S'have'
p1284
tp1285
a(S'you'
p1286
S"'ve"
p1287
tp1288
a(S'('
S'and'
tp1289
a(S')'
S'.'
tp1290
a(S'does'
p1291
S'the'
p1292
tp1293
a(S'is'
p1294
S'a'
tp1295
a(g706
S'had'
p1296
tp1297
a(S'am'
p1298
S'i'
tp1299
a(S'might'
p1300
S'be'
tp1301
a(S'how'
S'can'
tp1302
a(S'for'
S'your'
p1303
tp1304
a(g3
S'like'
p1305
tp1306
a(S'by'
p1307
S'the'
tp1308
a(S'does'
p1309
S'it'
tp1310
a(S'article'
S'?'
tp1311
a(S'of'
p1312
S'this'
p1313
tp1314
a(S'are'
S'we'
tp1315
a(S'wrong'
p1316
g1235
tp1317
a(S','
g2
tp1318
a(g507
S'&'
tp1319
a(S'it'
S'possible'
tp1320
a(S'or'
p1321
S'is'
tp1322
a(S'you'
S'get'
p1323
tp1324
a(S'the'
S'best'
p1325
tp1326
a(S'me'
p1327
S'to'
p1328
tp1329
a(S'what'
p1330
g911
tp1331
a(S'to'
p1332
g1100
tp1333
a(S'rather'
p1334
S'than'
p1335
tp1336
a(S'on'
p1337
S'wikipedia'
p1338
tp1339
a(S'the'
p1340
S'last'
p1341
tp1342
a(S'bit'
S'more'
p1343
tp1344
a(g239
S'&'
tp1345
a(S'why'
S'do'
tp1346
a(S'!'
S'!'
tp1347
a(S'how'
S'do'
tp1348
a(g394
S'interested'
tp1349
a(S'or'
p1350
g87
tp1351
a(g927
S'you'
p1352
tp1353
a(S'look'
p1354
S'at'
tp1355
a(S'I'
S"'d"
p1356
tp1357
a(S'Why'
p1358
g735
tp1359
a(g621
S'is'
p1360
tp1361
a(S'for'
p1362
S'me'
tp1363
a(S'I'
S'would'
p1364
tp1365
a(S'Do'
p1366
S'you'
tp1367
a(g7
S'the'
p1368
tp1369
a(S'help'
S'?'
tp1370
a(S'44'
g1321
tp1371
a(S'add'
S'a'
tp1372
a(S'the'
S'other'
p1373
tp1374
a.